target datalayout = "e-m:e-p270:32:32-p271:32:32-p272:64:64-i64:64-i128:128-f80:128-n8:16:32:64-S128"
target triple = "x86_64-unknown-linux-gnu"

%"class.folly::Optional.40" = type { %"struct.folly::Optional<unsigned long>::StorageTriviallyDestructible" }
%"struct.folly::Optional<unsigned long>::StorageTriviallyDestructible" = type <{ %union.anon.41, i8, [7 x i8] }>
%union.anon.41 = type { i64 }
%"class.folly::Optional.27" = type { %"struct.folly::Optional<unsigned char>::StorageTriviallyDestructible" }
%"struct.folly::Optional<unsigned char>::StorageTriviallyDestructible" = type { %union.anon.28, i8 }
%union.anon.28 = type { i8 }
%"class.std::chrono::time_point" = type { %"class.std::chrono::duration" }
%"class.std::chrono::duration" = type { i64 }
%"class.proxygen::WheelTimerInstance" = type { ptr, %"class.std::chrono::duration.14" }
%"class.std::chrono::duration.14" = type { i64 }
%"class.std::__shared_count" = type { ptr }
%"class.wangle::ManagedConnection" = type { %"class.folly::HHWheelTimerBase<std::chrono::duration<long, std::ratio<1, 1000>>>::Callback", %"class.folly::DelayedDestruction.base", i32, ptr, %"class.wangle::ConnectionAgeTimeout", %"class.folly::Optional", %"class.std::chrono::time_point", %"class.boost::intrusive::list_member_hook" }
%"class.folly::HHWheelTimerBase<std::chrono::duration<long, std::ratio<1, 1000>>>::Callback" = type { ptr, %"class.boost::intrusive::list_base_hook", ptr, %"class.std::chrono::time_point", i32, %"class.std::shared_ptr" }
%"class.boost::intrusive::list_base_hook" = type { %"class.boost::intrusive::generic_hook" }
%"class.boost::intrusive::generic_hook" = type { %"struct.boost::intrusive::node_holder" }
%"struct.boost::intrusive::node_holder" = type { %"struct.boost::intrusive::list_node" }
%"struct.boost::intrusive::list_node" = type { ptr, ptr }
%"class.std::shared_ptr" = type { %"class.std::__shared_ptr" }
%"class.std::__shared_ptr" = type { ptr, %"class.std::__shared_count" }
%"class.folly::DelayedDestruction.base" = type { %"class.folly::DelayedDestructionBase.base", i8 }
%"class.folly::DelayedDestructionBase.base" = type <{ ptr, i32 }>
%"class.wangle::ConnectionAgeTimeout" = type { %"class.folly::HHWheelTimerBase<std::chrono::duration<long, std::ratio<1, 1000>>>::Callback", ptr }
%"class.folly::Optional" = type { %"struct.folly::Optional<std::chrono::time_point<std::chrono::_V2::steady_clock, std::chrono::duration<long, std::ratio<1, 1000000000>>>>::StorageTriviallyDestructible" }
%"struct.folly::Optional<std::chrono::time_point<std::chrono::_V2::steady_clock, std::chrono::duration<long, std::ratio<1, 1000000000>>>>::StorageTriviallyDestructible" = type <{ %union.anon, i8, [7 x i8] }>
%union.anon = type { %"class.std::chrono::time_point" }
%"class.boost::intrusive::list_member_hook" = type { %"class.boost::intrusive::generic_hook.10" }
%"class.boost::intrusive::generic_hook.10" = type { %"struct.boost::intrusive::list_node" }
%"struct.wangle::TransportInfo" = type { %"class.std::chrono::time_point", %"class.std::chrono::time_point", %"class.std::chrono::duration.12", i64, i64, i64, i64, i64, i64, i64, i64, i64, %"class.std::__cxx11::basic_string", i32, %struct.tcp_info, %"class.std::chrono::duration.14", %"class.std::chrono::duration.14", %"class.std::shared_ptr.15", %"class.std::shared_ptr.15", %"class.std::shared_ptr.15", %"class.std::shared_ptr.15", %"class.std::shared_ptr.15", %"class.std::shared_ptr.15", %"class.std::shared_ptr.15", %"class.std::shared_ptr.15", %"class.std::shared_ptr.15", %"class.std::shared_ptr.15", %"class.std::shared_ptr.15", %"class.std::shared_ptr.15", %"class.std::shared_ptr.18", i64, i64, i64, %"class.std::shared_ptr.21", %"class.std::shared_ptr.21", %"class.std::shared_ptr.21", i32, i32, i32, %"class.std::__cxx11::basic_string", i16, %"class.std::shared_ptr.15", i16, i8, i32, i8, i8, %"class.std::__cxx11::basic_string", %"class.std::shared_ptr.24", %"class.std::shared_ptr.15", %"class.std::shared_ptr.15", i8, %"class.folly::Optional.27", %"class.std::__cxx11::basic_string" }
%"class.std::chrono::duration.12" = type { i64 }
%struct.tcp_info = type { i8, i8, i8, i8, i8, i8, i8, i32, i32, i32, i32, i32, i32, i32, i32, i32, i32, i32, i32, i32, i32, i32, i32, i32, i32, i32, i32, i32, i32, i32, i32 }
%"class.std::shared_ptr.18" = type { %"class.std::__shared_ptr.19" }
%"class.std::__shared_ptr.19" = type { ptr, %"class.std::__shared_count" }
%"class.std::shared_ptr.21" = type { %"class.std::__shared_ptr.22" }
%"class.std::__shared_ptr.22" = type { ptr, %"class.std::__shared_count" }
%"class.std::shared_ptr.24" = type { %"class.std::__shared_ptr.25" }
%"class.std::__shared_ptr.25" = type { ptr, %"class.std::__shared_count" }
%"class.std::shared_ptr.15" = type { %"class.std::__shared_ptr.16" }
%"class.std::__shared_ptr.16" = type { ptr, %"class.std::__shared_count" }
%"class.std::__cxx11::basic_string" = type { %"struct.std::__cxx11::basic_string<char>::_Alloc_hider", i64, %union.anon.13 }
%"struct.std::__cxx11::basic_string<char>::_Alloc_hider" = type { ptr }
%union.anon.13 = type { i64, [8 x i8] }
%"class.proxygen::FilterChain" = type { %"class.proxygen::PassThroughHTTPCodecFilter", ptr }
%"class.proxygen::PassThroughHTTPCodecFilter" = type { %"class.proxygen::GenericFilter" }
%"class.proxygen::GenericFilter" = type { %"class.proxygen::HTTPCodec", %"class.proxygen::HTTPCodec::Callback", i8, i8, ptr, ptr, ptr, ptr, ptr, ptr }
%"class.proxygen::HTTPCodec" = type { ptr }
%"class.proxygen::HTTP2PriorityQueue" = type { %"class.proxygen::HTTP2PriorityQueueBase", %"class.folly::F14FastMap", %"class.proxygen::HTTP2PriorityQueue::Node", i32, i64, i32, i32, %"class.folly::Optional.40", i8, %"class.proxygen::WheelTimerInstance", ptr }
%"class.proxygen::HTTP2PriorityQueueBase" = type { %"class.proxygen::HTTPCodec::PriorityQueue", i64 }
%"class.proxygen::HTTPCodec::PriorityQueue" = type { ptr }
%"class.folly::F14FastMap" = type { %"class.folly::F14ValueMap" }
%"class.folly::F14ValueMap" = type { %"class.folly::f14::detail::F14BasicMap" }
%"class.folly::f14::detail::F14BasicMap" = type { %"class.folly::f14::detail::F14Table" }
%"class.folly::f14::detail::F14Table" = type { ptr, %"struct.folly::f14::detail::SizeAndChunkShiftAndPackedBegin" }
%"struct.folly::f14::detail::SizeAndChunkShiftAndPackedBegin" = type { %"struct.folly::f14::detail::PackedSizeAndChunkShift", %"class.folly::f14::detail::PackedChunkItemPtr" }
%"struct.folly::f14::detail::PackedSizeAndChunkShift" = type { i64 }
%"class.folly::f14::detail::PackedChunkItemPtr" = type { i64 }
%"class.proxygen::HTTP2PriorityQueue::Node" = type { %"class.proxygen::HTTP2PriorityQueueBase::BaseNode", %"class.folly::HHWheelTimerBase<std::chrono::duration<long, std::ratio<1, 1000>>>::Callback", ptr, ptr, i64, i16, ptr, i8, i8, i64, i64, %"class.std::__cxx11::list", %"struct.std::_List_iterator", %"class.boost::intrusive::list_member_hook.37", %"class.boost::intrusive::list" }
%"class.proxygen::HTTP2PriorityQueueBase::BaseNode" = type { ptr }
%"class.std::__cxx11::list" = type { %"class.std::__cxx11::_List_base" }
%"class.std::__cxx11::_List_base" = type { %"struct.std::__cxx11::_List_base<std::unique_ptr<proxygen::HTTP2PriorityQueue::Node>, std::allocator<std::unique_ptr<proxygen::HTTP2PriorityQueue::Node>>>::_List_impl" }
%"struct.std::__cxx11::_List_base<std::unique_ptr<proxygen::HTTP2PriorityQueue::Node>, std::allocator<std::unique_ptr<proxygen::HTTP2PriorityQueue::Node>>>::_List_impl" = type { %"struct.std::__detail::_List_node_header" }
%"struct.std::__detail::_List_node_header" = type { %"struct.std::__detail::_List_node_base", i64 }
%"struct.std::__detail::_List_node_base" = type { ptr, ptr }
%"struct.std::_List_iterator" = type { ptr }
%"class.boost::intrusive::list_member_hook.37" = type { %"class.boost::intrusive::generic_hook.38" }
%"class.boost::intrusive::generic_hook.38" = type { %"struct.boost::intrusive::list_node" }
%"class.boost::intrusive::list" = type { %"class.boost::intrusive::list_impl" }
%"class.boost::intrusive::list_impl" = type { %"struct.boost::intrusive::list_impl<boost::intrusive::mhtraits<proxygen::HTTP2PriorityQueue::Node, boost::intrusive::list_member_hook<boost::intrusive::link_mode<boost::intrusive::auto_unlink>>, &proxygen::HTTP2PriorityQueue::Node::enqueuedHook_>, unsigned long, false, void>::data_t" }
%"struct.boost::intrusive::list_impl<boost::intrusive::mhtraits<proxygen::HTTP2PriorityQueue::Node, boost::intrusive::list_member_hook<boost::intrusive::link_mode<boost::intrusive::auto_unlink>>, &proxygen::HTTP2PriorityQueue::Node::enqueuedHook_>, unsigned long, false, void>::data_t" = type { %"struct.boost::intrusive::list_impl<boost::intrusive::mhtraits<proxygen::HTTP2PriorityQueue::Node, boost::intrusive::list_member_hook<boost::intrusive::link_mode<boost::intrusive::auto_unlink>>, &proxygen::HTTP2PriorityQueue::Node::enqueuedHook_>, unsigned long, false, void>::root_plus_size" }
%"struct.boost::intrusive::list_impl<boost::intrusive::mhtraits<proxygen::HTTP2PriorityQueue::Node, boost::intrusive::list_member_hook<boost::intrusive::link_mode<boost::intrusive::auto_unlink>>, &proxygen::HTTP2PriorityQueue::Node::enqueuedHook_>, unsigned long, false, void>::root_plus_size" = type { %"struct.boost::intrusive::detail::default_header_holder" }
%"struct.boost::intrusive::detail::default_header_holder" = type { %"struct.boost::intrusive::list_node" }
%"class.folly::SocketAddress" = type <{ %"union.folly::SocketAddress::AddrStorage", i16, i8, [5 x i8] }>
%"union.folly::SocketAddress::AddrStorage" = type { %"struct.folly::SocketAddress::ExternalUnixAddr", [8 x i8] }
%"struct.folly::SocketAddress::ExternalUnixAddr" = type { ptr, i32 }
%"class.folly::Optional.44" = type { %"struct.folly::Optional<std::__cxx11::basic_string<char>>::StorageNonTriviallyDestructible" }
%"struct.folly::Optional<std::__cxx11::basic_string<char>>::StorageNonTriviallyDestructible" = type <{ %union.anon.45, i8, [7 x i8] }>
%union.anon.45 = type { %"class.std::__cxx11::basic_string" }
%"struct.std::array.54" = type { [4 x ptr] }
%"class.std::chrono::duration.55" = type { i64 }
%"class.proxygen::HTTPCodec::Callback" = type { ptr }
%"class.std::unique_ptr.46" = type { %"struct.std::__uniq_ptr_data.47" }
%"struct.std::__uniq_ptr_data.47" = type { %"class.std::__uniq_ptr_impl.48" }
%"class.std::__uniq_ptr_impl.48" = type { %"class.std::tuple.49" }
%"class.std::tuple.49" = type { %"struct.std::_Tuple_impl.50" }
%"struct.std::_Tuple_impl.50" = type { %"struct.std::_Head_base.53" }
%"struct.std::_Head_base.53" = type { ptr }
%"class.proxygen::HTTPSessionBase" = type <{ %"class.wangle::ManagedConnection", ptr, ptr, %"struct.wangle::TransportInfo", %"class.proxygen::FilterChain", %"class.proxygen::HTTP2PriorityQueue", %"class.folly::SocketAddress", %"class.folly::SocketAddress", %"class.folly::Optional.44", i8, [7 x i8], %"class.std::unique_ptr.46", %"struct.std::array.54", ptr, %"class.std::chrono::time_point", %"class.std::chrono::duration.55", i32, i32, i32, i32, i32, i32, i64, i64, i32, i8, i8, [2 x i8] }>

; Function Attrs: mustprogress nounwind uwtable
define void @_ZN8proxygen11HTTPSession18onPingReplyLatencyEl(ptr noundef nonnull align 8 dereferenceable(2504) %this, i64 noundef %latency) unnamed_addr #5 align 2 personality ptr @__gxx_personality_v0 {
entry:
  %this.addr = alloca ptr, align 8
  %latency.addr = alloca i64, align 8
  store ptr %this, ptr %this.addr, align 8
  store i64 %latency, ptr %latency.addr, align 8
  %this1 = load ptr, ptr %this.addr, align 8
  %infoCallback_ = getelementptr inbounds %"class.proxygen::HTTPSessionBase", ptr %this1, i32 0, i32 2
  %0 = load ptr, ptr %infoCallback_, align 8
  %tobool = icmp ne ptr %0, null
  br i1 %tobool, label %land.lhs.true, label %if.end

land.lhs.true:                                    ; preds = %entry
  %1 = load i64, ptr %latency.addr, align 8
  %cmp = icmp sge i64 %1, 0
  br i1 %cmp, label %if.then, label %if.end

if.then:                                          ; preds = %land.lhs.true
  %infoCallback_2 = getelementptr inbounds %"class.proxygen::HTTPSessionBase", ptr %this1, i32 0, i32 2
  %2 = load ptr, ptr %infoCallback_2, align 8
  %3 = load i64, ptr %latency.addr, align 8
  %vtable = load ptr, ptr %2, align 8
  %vfn = getelementptr inbounds ptr, ptr %vtable, i64 21
  %4 = load ptr, ptr %vfn, align 8
  invoke void %4(ptr noundef nonnull align 8 dereferenceable(8) %2, i64 noundef %3)
          to label %invoke.cont unwind label %terminate.lpad

invoke.cont:                                      ; preds = %if.then
  br label %if.end

if.end:                                           ; preds = %invoke.cont, %land.lhs.true, %entry
  ret void

terminate.lpad:                                   ; preds = %if.then
  %5 = landingpad { ptr, i32 }
          catch ptr null
  %6 = extractvalue { ptr, i32 } %5, 0
  call void @__clang_call_terminate(ptr %6) #30
  unreachable
}

; Function Attrs: nounwind uwtable
define void @_ZThn1592_N8proxygen11HTTPSession18onPingReplyLatencyEl(ptr noundef %this, i64 noundef %latency) unnamed_addr #11 align 2 {
entry:
  %this.addr = alloca ptr, align 8
  %latency.addr = alloca i64, align 8
  store ptr %this, ptr %this.addr, align 8
  store i64 %latency, ptr %latency.addr, align 8
  %this1 = load ptr, ptr %this.addr, align 8
  %0 = getelementptr inbounds i8, ptr %this1, i64 -1592
  %1 = load i64, ptr %latency.addr, align 8
  tail call void @_ZN8proxygen11HTTPSession18onPingReplyLatencyEl(ptr noundef nonnull align 8 dereferenceable(2504) %0, i64 noundef %1) #3
  ret void
}