; Function Attrs: nounwind uwtable
define void @_ZThn1592_N8proxygen11HTTPSession18onPingReplyLatencyEl(ptr nocapture noundef readonly %this, i64 noundef %latency) unnamed_addr #10 align 2 personality ptr @__gxx_personality_v0 {
entry:
  %infoCallback_.i = getelementptr inbounds i8, ptr %this, i64 -1376
  %0 = load ptr, ptr %infoCallback_.i, align 8
  %tobool.i = icmp ne ptr %0, null
  %cmp.i = icmp sgt i64 %latency, -1
  %or.cond.i = and i1 %cmp.i, %tobool.i
  br i1 %or.cond.i, label %if.then.i, label %_ZN8proxygen11HTTPSession18onPingReplyLatencyEl.exit

if.then.i:                                        ; preds = %entry
  %vtable.i = load ptr, ptr %0, align 8
  %vfn.i = getelementptr inbounds i8, ptr %vtable.i, i64 168
  %1 = load ptr, ptr %vfn.i, align 8
  invoke void %1(ptr noundef nonnull align 8 dereferenceable(8) %0, i64 noundef %latency)
          to label %_ZN8proxygen11HTTPSession18onPingReplyLatencyEl.exit unwind label %terminate.lpad.i

terminate.lpad.i:                                 ; preds = %if.then.i
  %2 = landingpad { ptr, i32 }
          catch ptr null
  %3 = extractvalue { ptr, i32 } %2, 0
  tail call void @__clang_call_terminate(ptr %3) #40
  unreachable

_ZN8proxygen11HTTPSession18onPingReplyLatencyEl.exit: ; preds = %entry, %if.then.i
  ret void
}